target datalayout = "e-m:e-p270:32:32-p271:32:32-p272:64:64-i64:64-i128:128-f80:128-n8:16:32:64-S128"
target triple = "x86_64-pc-linux-gnu"

%struct.Gia_Man_t_ = type { ptr, ptr, i32, i32, i32, i32, ptr, ptr, i32, i32, i32, ptr, ptr, %struct.Vec_Int_t_, %struct.Vec_Int_t_, i32, i32, i32, %struct.Vec_Int_t_, ptr, ptr, ptr, i32, i32, i32, i32, ptr, ptr, ptr, ptr, ptr, i32, i32, ptr, i32, ptr, ptr, ptr, ptr, ptr, ptr, ptr, ptr, ptr, ptr, ptr, ptr, ptr, ptr, ptr, ptr, ptr, ptr, %struct.Vec_Int_t_, %struct.Vec_Int_t_, ptr, ptr, ptr, ptr, ptr, ptr, ptr, ptr, ptr, ptr, ptr, ptr, ptr, ptr, ptr, ptr, ptr, ptr, ptr, ptr, ptr, i32, float, float, ptr, ptr, i32, ptr, ptr, ptr, ptr, ptr, ptr, ptr, ptr, ptr, ptr, ptr, ptr, ptr, ptr, ptr, i64, i64, ptr, ptr, i32, i32, i32, i32, i32, i32, i32, i32, i32, i32, i32, i32, ptr, ptr, ptr, ptr, ptr, ptr, ptr, ptr, i32, i32, i32, ptr, i32, i32, ptr, ptr, ptr, ptr, ptr, ptr, i32, i32, ptr, %struct.Vec_Int_t_, %struct.Vec_Int_t_, %struct.Vec_Int_t_, ptr, ptr, ptr, i32, i32, i32, i32, ptr, ptr, ptr, ptr, ptr }
%struct.Vec_Int_t_ = type { i32, i32, ptr }
%struct.Abc_Cex_t_ = type { i32, i32, i32, i32, i32, [0 x i32] }

@.str.2 = private unnamed_addr constant [7 x i8] c"%3d : \00", align 1
@.str.3 = private unnamed_addr constant [9 x i8] c"temp.aig\00", align 1

; Function Attrs: inlinehint nounwind uwtable
define internal void @Vec_IntFreeP(ptr noundef %0) #2 {
  %2 = alloca ptr, align 8
  store ptr %0, ptr %2, align 8, !tbaa !71
  %3 = load ptr, ptr %2, align 8, !tbaa !71
  %4 = load ptr, ptr %3, align 8, !tbaa !50
  %5 = icmp eq ptr %4, null
  br i1 %5, label %6, label %7

6:                                                ; preds = %1
  br label %32

7:                                                ; preds = %1
  %8 = load ptr, ptr %2, align 8, !tbaa !71
  %9 = load ptr, ptr %8, align 8, !tbaa !50
  %10 = getelementptr inbounds nuw %struct.Vec_Int_t_, ptr %9, i32 0, i32 2
  %11 = load ptr, ptr %10, align 8, !tbaa !52
  %12 = icmp ne ptr %11, null
  br i1 %12, label %13, label %21

13:                                               ; preds = %7
  %14 = load ptr, ptr %2, align 8, !tbaa !71
  %15 = load ptr, ptr %14, align 8, !tbaa !50
  %16 = getelementptr inbounds nuw %struct.Vec_Int_t_, ptr %15, i32 0, i32 2
  %17 = load ptr, ptr %16, align 8, !tbaa !52
  call void @free(ptr noundef %17) #10
  %18 = load ptr, ptr %2, align 8, !tbaa !71
  %19 = load ptr, ptr %18, align 8, !tbaa !50
  %20 = getelementptr inbounds nuw %struct.Vec_Int_t_, ptr %19, i32 0, i32 2
  store ptr null, ptr %20, align 8, !tbaa !52
  br label %22

21:                                               ; preds = %7
  br label %22

22:                                               ; preds = %21, %13
  %23 = load ptr, ptr %2, align 8, !tbaa !71
  %24 = load ptr, ptr %23, align 8, !tbaa !50
  %25 = icmp ne ptr %24, null
  br i1 %25, label %26, label %30

26:                                               ; preds = %22
  %27 = load ptr, ptr %2, align 8, !tbaa !71
  %28 = load ptr, ptr %27, align 8, !tbaa !50
  call void @free(ptr noundef %28) #10
  %29 = load ptr, ptr %2, align 8, !tbaa !71
  store ptr null, ptr %29, align 8, !tbaa !50
  br label %31

30:                                               ; preds = %22
  br label %31

31:                                               ; preds = %30, %26
  br label %32

32:                                               ; preds = %31, %6
  ret void
}

; Function Attrs: nounwind uwtable
define ptr @Gia_ManCexMin(ptr noundef %0, ptr noundef %1, i32 noundef %2, i32 noundef %3, i32 noundef %4, i32 noundef %5, i32 noundef %6) #0 {
  %8 = alloca ptr, align 8
  %9 = alloca ptr, align 8
  %10 = alloca i32, align 4
  %11 = alloca i32, align 4
  %12 = alloca i32, align 4
  %13 = alloca i32, align 4
  %14 = alloca i32, align 4
  %15 = alloca ptr, align 8
  %16 = alloca i32, align 4
  %17 = alloca i32, align 4
  store ptr %0, ptr %8, align 8, !tbaa !3
  store ptr %1, ptr %9, align 8, !tbaa !8
  store i32 %2, ptr %10, align 4, !tbaa !10
  store i32 %3, ptr %11, align 4, !tbaa !10
  store i32 %4, ptr %12, align 4, !tbaa !10
  store i32 %5, ptr %13, align 4, !tbaa !10
  store i32 %6, ptr %14, align 4, !tbaa !10
  call void @llvm.lifetime.start.p0(i64 8, ptr %15) #10
  call void @llvm.lifetime.start.p0(i64 4, ptr %16) #10
  call void @llvm.lifetime.start.p0(i64 4, ptr %17) #10
  %18 = load ptr, ptr %8, align 8, !tbaa !3
  %19 = load ptr, ptr %9, align 8, !tbaa !8
  %20 = load i32, ptr %12, align 4, !tbaa !10
  %21 = call i32 @Gia_ManAnnotateUnrolling(ptr noundef %18, ptr noundef %19, i32 noundef %20)
  store i32 %21, ptr %17, align 4, !tbaa !10
  %22 = load i32, ptr %11, align 4, !tbaa !10
  %23 = icmp sge i32 %22, 0
  br i1 %23, label %24, label %40

24:                                               ; preds = %7
  %25 = load ptr, ptr %8, align 8, !tbaa !3
  %26 = load ptr, ptr %9, align 8, !tbaa !8
  %27 = load i32, ptr %10, align 4, !tbaa !10
  %28 = load i32, ptr %11, align 4, !tbaa !10
  %29 = load i32, ptr %13, align 4, !tbaa !10
  %30 = call ptr @Gia_ManCreateUnate(ptr noundef %25, ptr noundef %26, i32 noundef %27, i32 noundef %28, i32 noundef %29)
  store ptr %30, ptr %15, align 8, !tbaa !3
  %31 = load i32, ptr %10, align 4, !tbaa !10
  %32 = call i32 (ptr, ...) @printf(ptr noundef @.str.2, i32 noundef %31)
  %33 = load ptr, ptr %15, align 8, !tbaa !3
  call void @Gia_ManPrintStats(ptr noundef %33, ptr noundef null)
  %34 = load i32, ptr %14, align 4, !tbaa !10
  %35 = icmp ne i32 %34, 0
  br i1 %35, label %36, label %38

36:                                               ; preds = %24
  %37 = load ptr, ptr %15, align 8, !tbaa !3
  call void @Gia_AigerWrite(ptr noundef %37, ptr noundef @.str.3, i32 noundef 0, i32 noundef 0, i32 noundef 0)
  br label %38

38:                                               ; preds = %36, %24
  %39 = load ptr, ptr %15, align 8, !tbaa !3
  call void @Gia_ManStop(ptr noundef %39)
  br label %67

40:                                               ; preds = %7
  %41 = load ptr, ptr %9, align 8, !tbaa !8
  %42 = getelementptr inbounds nuw %struct.Abc_Cex_t_, ptr %41, i32 0, i32 1
  %43 = load i32, ptr %42, align 4, !tbaa !31
  store i32 %43, ptr %16, align 4, !tbaa !10
  br label %44

44:                                               ; preds = %63, %40
  %45 = load i32, ptr %16, align 4, !tbaa !10
  %46 = load i32, ptr %10, align 4, !tbaa !10
  %47 = icmp sge i32 %45, %46
  br i1 %47, label %48, label %66

48:                                               ; preds = %44
  %49 = load ptr, ptr %8, align 8, !tbaa !3
  %50 = load ptr, ptr %9, align 8, !tbaa !8
  %51 = load i32, ptr %16, align 4, !tbaa !10
  %52 = load i32, ptr %13, align 4, !tbaa !10
  %53 = call ptr @Gia_ManCreateUnate(ptr noundef %49, ptr noundef %50, i32 noundef %51, i32 noundef -1, i32 noundef %52)
  store ptr %53, ptr %15, align 8, !tbaa !3
  %54 = load i32, ptr %16, align 4, !tbaa !10
  %55 = call i32 (ptr, ...) @printf(ptr noundef @.str.2, i32 noundef %54)
  %56 = load ptr, ptr %15, align 8, !tbaa !3
  call void @Gia_ManPrintStats(ptr noundef %56, ptr noundef null)
  %57 = load i32, ptr %14, align 4, !tbaa !10
  %58 = icmp ne i32 %57, 0
  br i1 %58, label %59, label %61

59:                                               ; preds = %48
  %60 = load ptr, ptr %15, align 8, !tbaa !3
  call void @Gia_AigerWrite(ptr noundef %60, ptr noundef @.str.3, i32 noundef 0, i32 noundef 0, i32 noundef 0)
  br label %61

61:                                               ; preds = %59, %48
  %62 = load ptr, ptr %15, align 8, !tbaa !3
  call void @Gia_ManStop(ptr noundef %62)
  br label %63

63:                                               ; preds = %61
  %64 = load i32, ptr %16, align 4, !tbaa !10
  %65 = add nsw i32 %64, -1
  store i32 %65, ptr %16, align 4, !tbaa !10
  br label %44, !llvm.loop !70

66:                                               ; preds = %44
  br label %67

67:                                               ; preds = %66, %38
  %68 = load ptr, ptr %8, align 8, !tbaa !3
  %69 = getelementptr inbounds nuw %struct.Gia_Man_t_, ptr %68, i32 0, i32 56
  call void @Vec_IntFreeP(ptr noundef %69)
  %70 = load ptr, ptr %8, align 8, !tbaa !3
  %71 = getelementptr inbounds nuw %struct.Gia_Man_t_, ptr %70, i32 0, i32 126
  store i32 0, ptr %71, align 4, !tbaa !12
  call void @llvm.lifetime.end.p0(i64 4, ptr %17) #10
  call void @llvm.lifetime.end.p0(i64 4, ptr %16) #10
  call void @llvm.lifetime.end.p0(i64 8, ptr %15) #10
  ret ptr null
}