; Function Attrs: nounwind uwtable
define noalias noundef ptr @Gia_ManCexMin(ptr noundef initializes((432, 440), (924, 928)) %0, ptr noundef readonly captures(none) %1, i32 noundef %2, i32 noundef %3, i32 noundef %4, i32 noundef %5, i32 noundef %6) local_unnamed_addr #0 {
  %8 = tail call i32 @Gia_ManAnnotateUnrolling(ptr noundef %0, ptr noundef %1, i32 noundef %4)
  %9 = icmp sgt i32 %3, -1
  br i1 %9, label %10, label %15

10:                                               ; preds = %7
  %11 = tail call ptr @Gia_ManCreateUnate(ptr noundef %0, ptr noundef %1, i32 noundef %2, i32 noundef %3, i32 noundef %5)
  %12 = tail call i32 (ptr, ...) @printf(ptr noundef nonnull dereferenceable(1) @.str.2, i32 noundef %2)
  tail call void @Gia_ManPrintStats(ptr noundef %11, ptr noundef null) #13
  %.not30 = icmp eq i32 %6, 0
  br i1 %.not30, label %14, label %13

13:                                               ; preds = %10
  tail call void @Gia_AigerWrite(ptr noundef %11, ptr noundef nonnull @.str.3, i32 noundef 0, i32 noundef 0, i32 noundef 0) #13
  br label %14

14:                                               ; preds = %13, %10
  tail call void @Gia_ManStop(ptr noundef %11) #13
  br label %.loopexit

15:                                               ; preds = %7
  %16 = getelementptr inbounds nuw i8, ptr %1, i64 4
  %17 = load i32, ptr %16, align 4, !tbaa !29
  %.not31 = icmp slt i32 %17, %2
  br i1 %.not31, label %.loopexit, label %.lr.ph

.lr.ph:                                           ; preds = %15
  %.not29 = icmp eq i32 %6, 0
  br i1 %.not29, label %.lr.ph.split.us, label %.lr.ph.split

.lr.ph.split.us:                                  ; preds = %.lr.ph, %.lr.ph.split.us
  %.032.us = phi i32 [ %20, %.lr.ph.split.us ], [ %17, %.lr.ph ]
  %18 = tail call ptr @Gia_ManCreateUnate(ptr noundef %0, ptr noundef %1, i32 noundef %.032.us, i32 noundef -1, i32 noundef %5)
  %19 = tail call i32 (ptr, ...) @printf(ptr noundef nonnull dereferenceable(1) @.str.2, i32 noundef %.032.us)
  tail call void @Gia_ManPrintStats(ptr noundef %18, ptr noundef null) #13
  tail call void @Gia_ManStop(ptr noundef %18) #13
  %20 = add nsw i32 %.032.us, -1
  %.not.us.not = icmp sgt i32 %.032.us, %2
  br i1 %.not.us.not, label %.lr.ph.split.us, label %.loopexit, !llvm.loop !64

.lr.ph.split:                                     ; preds = %.lr.ph, %.lr.ph.split
  %.032 = phi i32 [ %23, %.lr.ph.split ], [ %17, %.lr.ph ]
  %21 = tail call ptr @Gia_ManCreateUnate(ptr noundef %0, ptr noundef %1, i32 noundef %.032, i32 noundef -1, i32 noundef %5)
  %22 = tail call i32 (ptr, ...) @printf(ptr noundef nonnull dereferenceable(1) @.str.2, i32 noundef %.032)
  tail call void @Gia_ManPrintStats(ptr noundef %21, ptr noundef null) #13
  tail call void @Gia_AigerWrite(ptr noundef %21, ptr noundef nonnull @.str.3, i32 noundef 0, i32 noundef 0, i32 noundef 0) #13
  tail call void @Gia_ManStop(ptr noundef %21) #13
  %23 = add nsw i32 %.032, -1
  %.not.not = icmp sgt i32 %.032, %2
  br i1 %.not.not, label %.lr.ph.split, label %.loopexit, !llvm.loop !64

.loopexit:                                        ; preds = %.lr.ph.split, %.lr.ph.split.us, %15, %14
  %24 = getelementptr inbounds nuw i8, ptr %0, i64 432
  %25 = load ptr, ptr %24, align 8, !tbaa !65
  %26 = icmp eq ptr %25, null
  br i1 %26, label %Vec_IntFreeP.exit, label %27

27:                                               ; preds = %.loopexit
  %28 = getelementptr inbounds nuw i8, ptr %25, i64 8
  %29 = load ptr, ptr %28, align 8, !tbaa !32
  %.not.i = icmp eq ptr %29, null
  br i1 %.not.i, label %32, label %.thread.i

.thread.i:                                        ; preds = %27
  tail call void @free(ptr noundef nonnull %29) #13
  %30 = load ptr, ptr %24, align 8, !tbaa !65
  %31 = getelementptr inbounds nuw i8, ptr %30, i64 8
  store ptr null, ptr %31, align 8, !tbaa !32
  br label %32

32:                                               ; preds = %.thread.i, %27
  %33 = phi ptr [ %30, %.thread.i ], [ %25, %27 ]
  tail call void @free(ptr noundef nonnull %33) #13
  store ptr null, ptr %24, align 8, !tbaa !65
  br label %Vec_IntFreeP.exit

Vec_IntFreeP.exit:                                ; preds = %.loopexit, %32
  %34 = getelementptr inbounds nuw i8, ptr %0, i64 924
  store i32 0, ptr %34, align 4, !tbaa !28
  ret ptr null
}